target datalayout = "e-m:e-p270:32:32-p271:32:32-p272:64:64-i64:64-i128:128-f80:128-n8:16:32:64-S128"
target triple = "x86_64-pc-linux-gnu"

%struct.TIME_t = type { i64 }

@g_displayLevel = internal global i32 0, align 4
@stderr = external global ptr, align 8
@.str.3 = private unnamed_addr constant [7 x i8] c"stdout\00", align 1
@.str.49 = private unnamed_addr constant [52 x i8] c"Done in %.2f s ==> %.2f MiB/s  (cpu load : %.0f%%)\0A\00", align 1

; Function Attrs: nounwind uwtable
define internal double @cpuTimeSpan_sec(double noundef %0) #0 {
  %2 = alloca double, align 8
  store double %0, ptr %2, align 8, !tbaa !35
  %3 = call double @cpuTime_sec()
  %4 = load double, ptr %2, align 8, !tbaa !35
  %5 = fsub double %3, %4
  ret double %5
}

; Function Attrs: nounwind uwtable
define internal i32 @UTIL_sameString(ptr noundef %0, ptr noundef %1) #0 {
  %3 = alloca i32, align 4
  %4 = alloca ptr, align 8
  %5 = alloca ptr, align 8
  store ptr %0, ptr %4, align 8, !tbaa !31
  store ptr %1, ptr %5, align 8, !tbaa !31
  %6 = load ptr, ptr %4, align 8, !tbaa !31
  %7 = icmp eq ptr %6, null
  br i1 %7, label %8, label %9

8:                                                ; preds = %2
  store i32 0, ptr %3, align 4
  br label %20

9:                                                ; preds = %2
  %10 = load ptr, ptr %5, align 8, !tbaa !31
  %11 = icmp eq ptr %10, null
  br i1 %11, label %12, label %13

12:                                               ; preds = %9
  store i32 0, ptr %3, align 4
  br label %20

13:                                               ; preds = %9
  %14 = load ptr, ptr %4, align 8, !tbaa !31
  %15 = load ptr, ptr %5, align 8, !tbaa !31
  %16 = call i32 @strcmp(ptr noundef %14, ptr noundef %15) #16
  %17 = icmp ne i32 %16, 0
  %18 = xor i1 %17, true
  %19 = zext i1 %18 to i32
  store i32 %19, ptr %3, align 4
  br label %20

20:                                               ; preds = %13, %12, %8
  %21 = load i32, ptr %3, align 4
  ret i32 %21
}

; Function Attrs: nounwind uwtable
define internal void @LZ4IO_finalTimeDisplay(i64 %0, double noundef %1, i64 noundef %2) #0 {
  %4 = alloca %struct.TIME_t, align 8
  %5 = alloca double, align 8
  %6 = alloca i64, align 8
  %7 = alloca i64, align 8
  %8 = alloca double, align 8
  %9 = alloca double, align 8
  %10 = getelementptr inbounds nuw %struct.TIME_t, ptr %4, i32 0, i32 0
  store i64 %0, ptr %10, align 8
  store double %1, ptr %5, align 8, !tbaa !35
  store i64 %2, ptr %6, align 8, !tbaa !37
  call void @llvm.lifetime.start.p0(i64 8, ptr %7) #13
  %11 = getelementptr inbounds nuw %struct.TIME_t, ptr %4, i32 0, i32 0
  %12 = load i64, ptr %11, align 8
  %13 = call i64 @TIME_clockSpan_ns(i64 %12)
  store i64 %13, ptr %7, align 8, !tbaa !37
  call void @llvm.lifetime.start.p0(i64 8, ptr %8) #13
  %14 = load i64, ptr %7, align 8, !tbaa !37
  %15 = load i64, ptr %7, align 8, !tbaa !37
  %16 = icmp ne i64 %15, 0
  %17 = xor i1 %16, true
  %18 = zext i1 %17 to i32
  %19 = sext i32 %18 to i64
  %20 = add i64 %14, %19
  %21 = uitofp i64 %20 to double
  %22 = fdiv double %21, 1.000000e+09
  store double %22, ptr %8, align 8, !tbaa !35
  call void @llvm.lifetime.start.p0(i64 8, ptr %9) #13
  %23 = load double, ptr %5, align 8, !tbaa !35
  %24 = call double @cpuTimeSpan_sec(double noundef %23)
  store double %24, ptr %9, align 8, !tbaa !35
  %25 = load i32, ptr @g_displayLevel, align 4, !tbaa !9
  %26 = icmp sge i32 %25, 3
  br i1 %26, label %27, label %47

27:                                               ; preds = %3
  %28 = load ptr, ptr @stderr, align 8, !tbaa !11
  %29 = load double, ptr %8, align 8, !tbaa !35
  %30 = load i64, ptr %6, align 8, !tbaa !37
  %31 = uitofp i64 %30 to double
  %32 = load double, ptr %8, align 8, !tbaa !35
  %33 = fdiv double %31, %32
  %34 = fdiv double %33, 1.024000e+03
  %35 = fdiv double %34, 1.024000e+03
  %36 = load double, ptr %9, align 8, !tbaa !35
  %37 = load double, ptr %8, align 8, !tbaa !35
  %38 = fdiv double %36, %37
  %39 = fmul double %38, 1.000000e+02
  %40 = call i32 (ptr, ptr, ...) @fprintf(ptr noundef %28, ptr noundef @.str.49, double noundef %29, double noundef %35, double noundef %39) #13
  %41 = load i32, ptr @g_displayLevel, align 4, !tbaa !9
  %42 = icmp sge i32 %41, 4
  br i1 %42, label %43, label %46

43:                                               ; preds = %27
  %44 = load ptr, ptr @stderr, align 8, !tbaa !11
  %45 = call i32 @fflush(ptr noundef %44)
  br label %46

46:                                               ; preds = %43, %27
  br label %47

47:                                               ; preds = %46, %3
  call void @llvm.lifetime.end.p0(i64 8, ptr %9) #13
  call void @llvm.lifetime.end.p0(i64 8, ptr %8) #13
  call void @llvm.lifetime.end.p0(i64 8, ptr %7) #13
  ret void
}

; Function Attrs: nounwind uwtable
define internal i32 @LZ4IO_isStdout(ptr noundef %0) #0 {
  %2 = alloca ptr, align 8
  store ptr %0, ptr %2, align 8, !tbaa !31
  %3 = load ptr, ptr %2, align 8, !tbaa !31
  %4 = call i32 @UTIL_sameString(ptr noundef %3, ptr noundef @.str.3)
  ret i32 %4
}

; Function Attrs: nounwind uwtable
define internal double @cpuTime_sec() #0 {
  %1 = call i64 @clock() #13
  %2 = sitofp i64 %1 to double
  %3 = fdiv double %2, 1.000000e+06
  ret double %3
}

; Function Attrs: nounwind uwtable
define dso_local i32 @LZ4IO_compressMultipleFilenames_Legacy(ptr noundef %0, i32 noundef %1, ptr noundef %2, i32 noundef %3, ptr noundef %4) #0 {
  %6 = alloca i32, align 4
  %7 = alloca ptr, align 8
  %8 = alloca i32, align 4
  %9 = alloca ptr, align 8
  %10 = alloca i32, align 4
  %11 = alloca ptr, align 8
  %12 = alloca %struct.TIME_t, align 8
  %13 = alloca double, align 8
  %14 = alloca i64, align 8
  %15 = alloca i32, align 4
  %16 = alloca i32, align 4
  %17 = alloca ptr, align 8
  %18 = alloca i64, align 8
  %19 = alloca i64, align 8
  %20 = alloca i32, align 4
  %21 = alloca i64, align 8
  %22 = alloca i64, align 8
  store ptr %0, ptr %7, align 8, !tbaa !64
  store i32 %1, ptr %8, align 4, !tbaa !9
  store ptr %2, ptr %9, align 8, !tbaa !31
  store i32 %3, ptr %10, align 4, !tbaa !9
  store ptr %4, ptr %11, align 8, !tbaa !4
  call void @llvm.lifetime.start.p0(i64 8, ptr %12) #13
  %23 = call i64 @TIME_getTime()
  %24 = getelementptr inbounds nuw %struct.TIME_t, ptr %12, i32 0, i32 0
  store i64 %23, ptr %24, align 8
  call void @llvm.lifetime.start.p0(i64 8, ptr %13) #13
  %25 = call double @cpuTime_sec()
  store double %25, ptr %13, align 8, !tbaa !35
  call void @llvm.lifetime.start.p0(i64 8, ptr %14) #13
  store i64 0, ptr %14, align 8, !tbaa !37
  call void @llvm.lifetime.start.p0(i64 4, ptr %15) #13
  call void @llvm.lifetime.start.p0(i64 4, ptr %16) #13
  store i32 0, ptr %16, align 4, !tbaa !9
  call void @llvm.lifetime.start.p0(i64 8, ptr %17) #13
  %26 = call noalias ptr @malloc(i64 noundef 30) #14
  store ptr %26, ptr %17, align 8, !tbaa !31
  call void @llvm.lifetime.start.p0(i64 8, ptr %18) #13
  store i64 30, ptr %18, align 8, !tbaa !32
  call void @llvm.lifetime.start.p0(i64 8, ptr %19) #13
  %27 = load ptr, ptr %9, align 8, !tbaa !31
  %28 = call i64 @strlen(ptr noundef %27) #16
  store i64 %28, ptr %19, align 8, !tbaa !32
  %29 = load ptr, ptr %17, align 8, !tbaa !31
  %30 = icmp eq ptr %29, null
  br i1 %30, label %31, label %33

31:                                               ; preds = %5
  %32 = load i32, ptr %8, align 4, !tbaa !9
  store i32 %32, ptr %6, align 4
  store i32 1, ptr %20, align 4
  br label %118

33:                                               ; preds = %5
  store i32 0, ptr %15, align 4, !tbaa !9
  br label %34

34:                                               ; preds = %108, %33
  %35 = load i32, ptr %15, align 4, !tbaa !9
  %36 = load i32, ptr %8, align 4, !tbaa !9
  %37 = icmp slt i32 %35, %36
  br i1 %37, label %38, label %111

38:                                               ; preds = %34
  call void @llvm.lifetime.start.p0(i64 8, ptr %21) #13
  store i64 0, ptr %21, align 8, !tbaa !37
  call void @llvm.lifetime.start.p0(i64 8, ptr %22) #13
  %39 = load ptr, ptr %7, align 8, !tbaa !64
  %40 = load i32, ptr %15, align 4, !tbaa !9
  %41 = sext i32 %40 to i64
  %42 = getelementptr inbounds ptr, ptr %39, i64 %41
  %43 = load ptr, ptr %42, align 8, !tbaa !31
  %44 = call i64 @strlen(ptr noundef %43) #16
  store i64 %44, ptr %22, align 8, !tbaa !32
  %45 = load ptr, ptr %9, align 8, !tbaa !31
  %46 = call i32 @LZ4IO_isStdout(ptr noundef %45)
  %47 = icmp ne i32 %46, 0
  br i1 %47, label %48, label %62

48:                                               ; preds = %38
  %49 = load ptr, ptr %7, align 8, !tbaa !64
  %50 = load i32, ptr %15, align 4, !tbaa !9
  %51 = sext i32 %50 to i64
  %52 = getelementptr inbounds ptr, ptr %49, i64 %51
  %53 = load ptr, ptr %52, align 8, !tbaa !31
  %54 = load i32, ptr %10, align 4, !tbaa !9
  %55 = load ptr, ptr %11, align 8, !tbaa !4
  %56 = call i32 @LZ4IO_compressLegacy_internal(ptr noundef %21, ptr noundef %53, ptr noundef @.str.3, i32 noundef %54, ptr noundef %55)
  %57 = load i32, ptr %16, align 4, !tbaa !9
  %58 = add nsw i32 %57, %56
  store i32 %58, ptr %16, align 4, !tbaa !9
  %59 = load i64, ptr %21, align 8, !tbaa !37
  %60 = load i64, ptr %14, align 8, !tbaa !37
  %61 = add i64 %60, %59
  store i64 %61, ptr %14, align 8, !tbaa !37
  store i32 4, ptr %20, align 4
  br label %105

62:                                               ; preds = %38
  %63 = load i64, ptr %18, align 8, !tbaa !32
  %64 = load i64, ptr %22, align 8, !tbaa !32
  %65 = load i64, ptr %19, align 8, !tbaa !32
  %66 = add i64 %64, %65
  %67 = add i64 %66, 1
  %68 = icmp ule i64 %63, %67
  br i1 %68, label %69, label %80

69:                                               ; preds = %62
  %70 = load ptr, ptr %17, align 8, !tbaa !31
  call void @free(ptr noundef %70) #13
  %71 = load i64, ptr %22, align 8, !tbaa !32
  %72 = add i64 %71, 20
  store i64 %72, ptr %18, align 8, !tbaa !32
  %73 = load i64, ptr %18, align 8, !tbaa !32
  %74 = call noalias ptr @malloc(i64 noundef %73) #14
  store ptr %74, ptr %17, align 8, !tbaa !31
  %75 = load ptr, ptr %17, align 8, !tbaa !31
  %76 = icmp eq ptr %75, null
  br i1 %76, label %77, label %79

77:                                               ; preds = %69
  %78 = load i32, ptr %8, align 4, !tbaa !9
  store i32 %78, ptr %6, align 4
  store i32 1, ptr %20, align 4
  br label %105

79:                                               ; preds = %69
  br label %80

80:                                               ; preds = %79, %62
  %81 = load ptr, ptr %17, align 8, !tbaa !31
  %82 = load ptr, ptr %7, align 8, !tbaa !64
  %83 = load i32, ptr %15, align 4, !tbaa !9
  %84 = sext i32 %83 to i64
  %85 = getelementptr inbounds ptr, ptr %82, i64 %84
  %86 = load ptr, ptr %85, align 8, !tbaa !31
  %87 = call ptr @strcpy(ptr noundef %81, ptr noundef %86) #13
  %88 = load ptr, ptr %17, align 8, !tbaa !31
  %89 = load ptr, ptr %9, align 8, !tbaa !31
  %90 = call ptr @strcat(ptr noundef %88, ptr noundef %89) #13
  %91 = load ptr, ptr %7, align 8, !tbaa !64
  %92 = load i32, ptr %15, align 4, !tbaa !9
  %93 = sext i32 %92 to i64
  %94 = getelementptr inbounds ptr, ptr %91, i64 %93
  %95 = load ptr, ptr %94, align 8, !tbaa !31
  %96 = load ptr, ptr %17, align 8, !tbaa !31
  %97 = load i32, ptr %10, align 4, !tbaa !9
  %98 = load ptr, ptr %11, align 8, !tbaa !4
  %99 = call i32 @LZ4IO_compressLegacy_internal(ptr noundef %21, ptr noundef %95, ptr noundef %96, i32 noundef %97, ptr noundef %98)
  %100 = load i32, ptr %16, align 4, !tbaa !9
  %101 = add nsw i32 %100, %99
  store i32 %101, ptr %16, align 4, !tbaa !9
  %102 = load i64, ptr %21, align 8, !tbaa !37
  %103 = load i64, ptr %14, align 8, !tbaa !37
  %104 = add i64 %103, %102
  store i64 %104, ptr %14, align 8, !tbaa !37
  store i32 0, ptr %20, align 4
  br label %105

105:                                              ; preds = %80, %77, %48
  call void @llvm.lifetime.end.p0(i64 8, ptr %22) #13
  call void @llvm.lifetime.end.p0(i64 8, ptr %21) #13
  %106 = load i32, ptr %20, align 4
  switch i32 %106, label %118 [
    i32 0, label %107
    i32 4, label %108
  ]

107:                                              ; preds = %105
  br label %108

108:                                              ; preds = %107, %105
  %109 = load i32, ptr %15, align 4, !tbaa !9
  %110 = add nsw i32 %109, 1
  store i32 %110, ptr %15, align 4, !tbaa !9
  br label %34, !llvm.loop !66

111:                                              ; preds = %34
  %112 = load double, ptr %13, align 8, !tbaa !35
  %113 = load i64, ptr %14, align 8, !tbaa !37
  %114 = getelementptr inbounds nuw %struct.TIME_t, ptr %12, i32 0, i32 0
  %115 = load i64, ptr %114, align 8
  call void @LZ4IO_finalTimeDisplay(i64 %115, double noundef %112, i64 noundef %113)
  %116 = load ptr, ptr %17, align 8, !tbaa !31
  call void @free(ptr noundef %116) #13
  %117 = load i32, ptr %16, align 4, !tbaa !9
  store i32 %117, ptr %6, align 4
  store i32 1, ptr %20, align 4
  br label %118

118:                                              ; preds = %111, %105, %31
  call void @llvm.lifetime.end.p0(i64 8, ptr %19) #13
  call void @llvm.lifetime.end.p0(i64 8, ptr %18) #13
  call void @llvm.lifetime.end.p0(i64 8, ptr %17) #13
  call void @llvm.lifetime.end.p0(i64 4, ptr %16) #13
  call void @llvm.lifetime.end.p0(i64 4, ptr %15) #13
  call void @llvm.lifetime.end.p0(i64 8, ptr %14) #13
  call void @llvm.lifetime.end.p0(i64 8, ptr %13) #13
  call void @llvm.lifetime.end.p0(i64 8, ptr %12) #13
  %119 = load i32, ptr %6, align 4
  ret i32 %119
}