; Function Attrs: nounwind uwtable
define dso_local i32 @LZ4IO_compressMultipleFilenames_Legacy(ptr noundef readonly captures(none) %0, i32 noundef %1, ptr noundef readonly captures(none) %2, i32 noundef %3, ptr noundef readonly captures(none) %4) local_unnamed_addr #11 {
  %6 = alloca i64, align 8
  %7 = tail call i64 @TIME_getTime() #24
  %8 = tail call i64 @clock() #24
  %9 = sitofp i64 %8 to double
  %10 = fdiv double %9, 1.000000e+06
  %11 = tail call noalias dereferenceable_or_null(30) ptr @malloc(i64 noundef 30) #25
  %12 = tail call i64 @strlen(ptr noundef nonnull dereferenceable(1) %2) #30
  %13 = icmp eq ptr %11, null
  br i1 %13, label %60, label %.preheader

.preheader:                                       ; preds = %5
  %14 = icmp sgt i32 %1, 0
  br i1 %14, label %LZ4IO_isStdout.exit.lr.ph, label %._crit_edge

LZ4IO_isStdout.exit.lr.ph:                        ; preds = %.preheader
  %15 = add i64 %12, 1
  %wide.trip.count = zext nneg i32 %1 to i64
  br label %LZ4IO_isStdout.exit

LZ4IO_isStdout.exit:                              ; preds = %LZ4IO_isStdout.exit.lr.ph, %35
  %indvars.iv = phi i64 [ 0, %LZ4IO_isStdout.exit.lr.ph ], [ %indvars.iv.next, %35 ]
  %.04176 = phi i64 [ 0, %LZ4IO_isStdout.exit.lr.ph ], [ %.142.ph, %35 ]
  %.04375 = phi i64 [ 30, %LZ4IO_isStdout.exit.lr.ph ], [ %.144.ph, %35 ]
  %.04674 = phi ptr [ %11, %LZ4IO_isStdout.exit.lr.ph ], [ %.147.ph, %35 ]
  %.04973 = phi i32 [ 0, %LZ4IO_isStdout.exit.lr.ph ], [ %.150.ph, %35 ]
  call void @llvm.lifetime.start.p0(i64 8, ptr nonnull %6) #24
  store i64 0, ptr %6, align 8, !tbaa !32
  %16 = getelementptr inbounds nuw ptr, ptr %0, i64 %indvars.iv
  %17 = load ptr, ptr %16, align 8, !tbaa !58
  %18 = tail call i64 @strlen(ptr noundef nonnull dereferenceable(1) %17) #30
  %19 = tail call i32 @strcmp(ptr noundef nonnull readonly dereferenceable(1) %2, ptr noundef nonnull dereferenceable(7) @.str.3) #30
  %.not.i.i.not = icmp eq i32 %19, 0
  br i1 %.not.i.i.not, label %20, label %22

20:                                               ; preds = %LZ4IO_isStdout.exit
  %21 = call fastcc i32 @LZ4IO_compressLegacy_internal(ptr noundef %6, ptr noundef nonnull %17, ptr noundef nonnull @.str.3, i32 noundef %3, ptr noundef %4)
  br label %35

22:                                               ; preds = %LZ4IO_isStdout.exit
  %23 = add i64 %15, %18
  %.not56 = icmp ugt i64 %.04375, %23
  br i1 %.not56, label %28, label %24

24:                                               ; preds = %22
  tail call void @free(ptr noundef %.04674) #24
  %25 = add i64 %18, 20
  %26 = tail call noalias ptr @malloc(i64 noundef %25) #25
  %27 = icmp eq ptr %26, null
  br i1 %27, label %34, label %._crit_edge80

._crit_edge80:                                    ; preds = %24
  %.pre = load ptr, ptr %16, align 8, !tbaa !58
  br label %28

28:                                               ; preds = %._crit_edge80, %22
  %29 = phi ptr [ %.pre, %._crit_edge80 ], [ %17, %22 ]
  %.248 = phi ptr [ %26, %._crit_edge80 ], [ %.04674, %22 ]
  %.245 = phi i64 [ %25, %._crit_edge80 ], [ %.04375, %22 ]
  %30 = tail call ptr @strcpy(ptr noundef nonnull dereferenceable(1) %.248, ptr noundef nonnull dereferenceable(1) %29) #24
  %31 = tail call ptr @strcat(ptr noundef nonnull dereferenceable(1) %.248, ptr noundef nonnull dereferenceable(1) %2) #24
  %32 = load ptr, ptr %16, align 8, !tbaa !58
  %33 = call fastcc i32 @LZ4IO_compressLegacy_internal(ptr noundef %6, ptr noundef %32, ptr noundef nonnull %.248, i32 noundef %3, ptr noundef %4)
  br label %35

34:                                               ; preds = %24
  call void @llvm.lifetime.end.p0(i64 8, ptr nonnull %6) #24
  br label %60

35:                                               ; preds = %20, %28
  %.pn = phi i32 [ %33, %28 ], [ %21, %20 ]
  %.147.ph = phi ptr [ %.248, %28 ], [ %.04674, %20 ]
  %.144.ph = phi i64 [ %.245, %28 ], [ %.04375, %20 ]
  %.pn68 = load i64, ptr %6, align 8, !tbaa !32
  %.142.ph = add i64 %.pn68, %.04176
  %.150.ph = add nuw nsw i32 %.pn, %.04973
  call void @llvm.lifetime.end.p0(i64 8, ptr nonnull %6) #24
  %indvars.iv.next = add nuw nsw i64 %indvars.iv, 1
  %exitcond.not = icmp eq i64 %indvars.iv.next, %wide.trip.count
  br i1 %exitcond.not, label %._crit_edge.loopexit, label %LZ4IO_isStdout.exit, !llvm.loop !59

._crit_edge.loopexit:                             ; preds = %35
  %36 = uitofp i64 %.142.ph to double
  br label %._crit_edge

._crit_edge:                                      ; preds = %._crit_edge.loopexit, %.preheader
  %.049.lcssa = phi i32 [ 0, %.preheader ], [ %.150.ph, %._crit_edge.loopexit ]
  %.046.lcssa = phi ptr [ %11, %.preheader ], [ %.147.ph, %._crit_edge.loopexit ]
  %.041.lcssa = phi double [ 0.000000e+00, %.preheader ], [ %36, %._crit_edge.loopexit ]
  %37 = tail call i64 @TIME_clockSpan_ns(i64 %7) #24
  %38 = tail call i64 @clock() #24
  %39 = load i32, ptr @g_displayLevel, align 4, !tbaa !4
  %40 = icmp sgt i32 %39, 2
  br i1 %40, label %41, label %LZ4IO_finalTimeDisplay.exit

41:                                               ; preds = %._crit_edge
  %42 = sitofp i64 %38 to double
  %43 = fdiv double %42, 1.000000e+06
  %44 = fsub double %43, %10
  %45 = tail call i64 @llvm.umax.i64(i64 %37, i64 1)
  %46 = uitofp i64 %45 to double
  %47 = fdiv double %46, 1.000000e+09
  %48 = load ptr, ptr @stderr, align 8, !tbaa !8
  %49 = fdiv double %.041.lcssa, %47
  %50 = fmul double %49, 0x3F50000000000000
  %51 = fmul double %50, 0x3F50000000000000
  %52 = fdiv double %44, %47
  %53 = fmul double %52, 1.000000e+02
  %54 = tail call i32 (ptr, ptr, ...) @fprintf(ptr noundef %48, ptr noundef nonnull @.str.49, double noundef %47, double noundef %51, double noundef %53) #26
  %55 = load i32, ptr @g_displayLevel, align 4, !tbaa !4
  %56 = icmp sgt i32 %55, 3
  br i1 %56, label %57, label %LZ4IO_finalTimeDisplay.exit

57:                                               ; preds = %41
  %58 = load ptr, ptr @stderr, align 8, !tbaa !8
  %59 = tail call i32 @fflush(ptr noundef %58)
  br label %LZ4IO_finalTimeDisplay.exit

LZ4IO_finalTimeDisplay.exit:                      ; preds = %._crit_edge, %41, %57
  tail call void @free(ptr noundef %.046.lcssa) #24
  br label %60

60:                                               ; preds = %34, %5, %LZ4IO_finalTimeDisplay.exit
  %.0 = phi i32 [ %1, %34 ], [ %.049.lcssa, %LZ4IO_finalTimeDisplay.exit ], [ %1, %5 ]
  ret i32 %.0
}